; Function Attrs: nofree norecurse nosync nounwind memory(readwrite, inaccessiblemem: none) uwtable
define internal void @SDL_Blit_XRGB8888_ABGR8888_Blend(ptr noundef captures(none) %0) #0 {
  %2 = getelementptr inbounds nuw i8, ptr %0, i64 112
  %3 = load i32, ptr %2, align 8
  %4 = getelementptr inbounds nuw i8, ptr %0, i64 52
  %5 = load i32, ptr %4, align 4
  %6 = add nsw i32 %5, -1
  store i32 %6, ptr %4, align 4
  %.not90 = icmp eq i32 %5, 0
  br i1 %.not90, label %._crit_edge93, label %.lr.ph92

.lr.ph92:                                         ; preds = %1
  %7 = getelementptr inbounds nuw i8, ptr %0, i64 8
  %8 = getelementptr inbounds nuw i8, ptr %0, i64 40
  %9 = getelementptr inbounds nuw i8, ptr %0, i64 48
  %10 = and i32 %3, 1008
  %11 = getelementptr inbounds nuw i8, ptr %0, i64 24
  %12 = getelementptr inbounds nuw i8, ptr %0, i64 56
  %13 = load i32, ptr %9, align 8
  %14 = icmp eq i32 %13, 0
  br i1 %14, label %.lr.ph92.split.us, label %.lr.ph92.split.preheader

.lr.ph92.split.preheader:                         ; preds = %.lr.ph92
  %.pre = load ptr, ptr %7, align 8
  %.pre101 = load ptr, ptr %8, align 8
  br label %.lr.ph92.split

.lr.ph92.split.us:                                ; preds = %.lr.ph92
  %15 = load i32, ptr %11, align 8
  %16 = sext i32 %15 to i64
  %17 = load i32, ptr %12, align 8
  %18 = sext i32 %17 to i64
  %.promoted = load ptr, ptr %7, align 8
  %.promoted94 = load ptr, ptr %8, align 8
  %19 = zext i32 %5 to i64
  %20 = mul nsw i64 %19, %16
  %scevgep = getelementptr i8, ptr %.promoted, i64 %20
  %21 = mul nsw i64 %19, %18
  %scevgep100 = getelementptr i8, ptr %.promoted94, i64 %21
  store ptr %scevgep, ptr %7, align 8
  store ptr %scevgep100, ptr %8, align 8
  store i32 -1, ptr %4, align 4
  br label %._crit_edge93

.lr.ph92.splitthread-pre-split:                   ; preds = %._crit_edge
  %.pr = load i32, ptr %9, align 8
  br label %.lr.ph92.split

.lr.ph92.split:                                   ; preds = %.lr.ph92.splitthread-pre-split, %.lr.ph92.split.preheader
  %22 = phi i32 [ %.pr, %.lr.ph92.splitthread-pre-split ], [ %13, %.lr.ph92.split.preheader ]
  %23 = phi i32 [ %95, %.lr.ph92.splitthread-pre-split ], [ %6, %.lr.ph92.split.preheader ]
  %24 = phi ptr [ %94, %.lr.ph92.splitthread-pre-split ], [ %.pre101, %.lr.ph92.split.preheader ]
  %25 = phi ptr [ %91, %.lr.ph92.splitthread-pre-split ], [ %.pre, %.lr.ph92.split.preheader ]
  %.not8687 = icmp eq i32 %22, 0
  br i1 %.not8687, label %._crit_edge, label %.lr.ph

.lr.ph:                                           ; preds = %.lr.ph92.split, %77
  %.in = phi i32 [ %26, %77 ], [ %22, %.lr.ph92.split ]
  %.08389 = phi ptr [ %84, %77 ], [ %25, %.lr.ph92.split ]
  %.08588 = phi ptr [ %85, %77 ], [ %24, %.lr.ph92.split ]
  %26 = add nsw i32 %.in, -1
  %27 = load i32, ptr %.08389, align 4
  %28 = lshr i32 %27, 16
  %29 = and i32 %28, 255
  %30 = lshr i32 %27, 8
  %31 = and i32 %30, 255
  %32 = and i32 %27, 255
  %33 = load i32, ptr %.08588, align 4
  %34 = lshr i32 %33, 16
  %35 = and i32 %34, 255
  %36 = lshr i32 %33, 8
  %37 = and i32 %36, 255
  %38 = and i32 %33, 255
  %39 = lshr i32 %33, 24
  switch i32 %10, label %77 [
    i32 16, label %40
    i32 32, label %40
    i32 64, label %41
    i32 128, label %41
    i32 256, label %45
    i32 512, label %61
  ]

40:                                               ; preds = %.lr.ph, %.lr.ph
  br label %77

41:                                               ; preds = %.lr.ph, %.lr.ph
  %42 = add nuw nsw i32 %29, %38
  %spec.store.select = tail call i32 @llvm.umin.i32(i32 %42, i32 255)
  %43 = add nuw nsw i32 %37, %31
  %spec.store.select2 = tail call i32 @llvm.umin.i32(i32 %43, i32 255)
  %44 = add nuw nsw i32 %35, %32
  %spec.store.select1 = tail call i32 @llvm.umin.i32(i32 %44, i32 255)
  br label %77

45:                                               ; preds = %.lr.ph
  %46 = mul nuw nsw i32 %29, %38
  %47 = add nuw nsw i32 %46, 1
  %48 = lshr i32 %47, 8
  %49 = add nuw nsw i32 %48, %47
  %50 = lshr i32 %49, 8
  %51 = mul nuw nsw i32 %37, %31
  %52 = add nuw nsw i32 %51, 1
  %53 = lshr i32 %52, 8
  %54 = add nuw nsw i32 %53, %52
  %55 = lshr i32 %54, 8
  %56 = mul nuw nsw i32 %35, %32
  %57 = add nuw nsw i32 %56, 1
  %58 = lshr i32 %57, 8
  %59 = add nuw nsw i32 %58, %57
  %60 = lshr i32 %59, 8
  br label %77

61:                                               ; preds = %.lr.ph
  %62 = mul nuw nsw i32 %29, %38
  %63 = add nuw nsw i32 %62, 1
  %64 = lshr i32 %63, 8
  %65 = add nuw nsw i32 %64, %63
  %66 = lshr i32 %65, 8
  %67 = mul nuw nsw i32 %37, %31
  %68 = add nuw nsw i32 %67, 1
  %69 = lshr i32 %68, 8
  %70 = add nuw nsw i32 %69, %68
  %71 = lshr i32 %70, 8
  %72 = mul nuw nsw i32 %35, %32
  %73 = add nuw nsw i32 %72, 1
  %74 = lshr i32 %73, 8
  %75 = add nuw nsw i32 %74, %73
  %76 = lshr i32 %75, 8
  br label %77

77:                                               ; preds = %61, %45, %41, %40, %.lr.ph
  %.082 = phi i32 [ %39, %.lr.ph ], [ %39, %61 ], [ %39, %45 ], [ %39, %41 ], [ 255, %40 ]
  %.081 = phi i32 [ %35, %.lr.ph ], [ %76, %61 ], [ %60, %45 ], [ %spec.store.select1, %41 ], [ %32, %40 ]
  %.080 = phi i32 [ %37, %.lr.ph ], [ %71, %61 ], [ %55, %45 ], [ %spec.store.select2, %41 ], [ %31, %40 ]
  %.0 = phi i32 [ %38, %.lr.ph ], [ %66, %61 ], [ %50, %45 ], [ %spec.store.select, %41 ], [ %29, %40 ]
  %78 = shl nuw i32 %.082, 24
  %79 = shl nuw nsw i32 %.081, 16
  %80 = add nuw nsw i32 %79, %78
  %81 = shl nuw nsw i32 %.080, 8
  %82 = add nuw nsw i32 %80, %81
  %83 = add nuw nsw i32 %82, %.0
  store i32 %83, ptr %.08588, align 4
  %84 = getelementptr inbounds nuw i8, ptr %.08389, i64 4
  %85 = getelementptr inbounds nuw i8, ptr %.08588, i64 4
  %.not86 = icmp eq i32 %26, 0
  br i1 %.not86, label %._crit_edge.loopexit, label %.lr.ph, !llvm.loop !49

._crit_edge.loopexit:                             ; preds = %77
  %.pre102 = load ptr, ptr %7, align 8
  %.pre103 = load ptr, ptr %8, align 8
  %.pre104 = load i32, ptr %4, align 4
  br label %._crit_edge

._crit_edge:                                      ; preds = %._crit_edge.loopexit, %.lr.ph92.split
  %86 = phi i32 [ %.pre104, %._crit_edge.loopexit ], [ %23, %.lr.ph92.split ]
  %87 = phi ptr [ %.pre103, %._crit_edge.loopexit ], [ %24, %.lr.ph92.split ]
  %88 = phi ptr [ %.pre102, %._crit_edge.loopexit ], [ %25, %.lr.ph92.split ]
  %89 = load i32, ptr %11, align 8
  %90 = sext i32 %89 to i64
  %91 = getelementptr inbounds i8, ptr %88, i64 %90
  store ptr %91, ptr %7, align 8
  %92 = load i32, ptr %12, align 8
  %93 = sext i32 %92 to i64
  %94 = getelementptr inbounds i8, ptr %87, i64 %93
  store ptr %94, ptr %8, align 8
  %95 = add nsw i32 %86, -1
  store i32 %95, ptr %4, align 4
  %.not = icmp eq i32 %86, 0
  br i1 %.not, label %._crit_edge93, label %.lr.ph92.splitthread-pre-split, !llvm.loop !50

._crit_edge93:                                    ; preds = %._crit_edge, %.lr.ph92.split.us, %1
  ret void
}